; Function Attrs: mustprogress nofree norecurse nosync nounwind willreturn memory(read, inaccessiblemem: none) uwtable
define noundef ptr @_ZN7mitsuba6Logger8appenderEm(ptr nocapture noundef nonnull readonly align 8 dereferenceable(24) %0, i64 noundef %1) local_unnamed_addr #6 align 2 {
  %3 = getelementptr inbounds i8, ptr %0, i64 16
  %4 = load ptr, ptr %3, align 8
  %5 = getelementptr inbounds i8, ptr %4, i64 48
  %6 = load ptr, ptr %5, align 8
  %7 = getelementptr inbounds %"class.mitsuba::ref.12", ptr %6, i64 %1
  %8 = load ptr, ptr %7, align 8
  ret ptr %8
}